target datalayout = "e-m:e-p270:32:32-p271:32:32-p272:64:64-i64:64-i128:128-f80:128-n8:16:32:64-S128"
target triple = "x86_64-pc-linux-gnu"

@.str.118 = private unnamed_addr constant [41 x i8] c"Syntax error in matrix \22%s\22 at coeff %d\0A\00", align 1

; Function Attrs: inlinehint nounwind willreturn memory(read) uwtable
define available_externally i32 @atoi(ptr noundef nonnull %0) #10 {
  %2 = alloca ptr, align 8
  store ptr %0, ptr %2, align 8, !tbaa !15
  %3 = load ptr, ptr %2, align 8, !tbaa !15
  %4 = call i64 @strtol(ptr noundef %3, ptr noundef null, i32 noundef 10) #12
  %5 = trunc i64 %4 to i32
  ret i32 %5
}

; Function Attrs: nounwind uwtable
define internal i32 @parse_matrix_coeffs(ptr noundef %0, ptr noundef %1, ptr noundef %2) #0 {
  %4 = alloca i32, align 4
  %5 = alloca ptr, align 8
  %6 = alloca ptr, align 8
  %7 = alloca ptr, align 8
  %8 = alloca ptr, align 8
  %9 = alloca i32, align 4
  %10 = alloca i32, align 4
  store ptr %0, ptr %5, align 8, !tbaa !75
  store ptr %1, ptr %6, align 8, !tbaa !465
  store ptr %2, ptr %7, align 8, !tbaa !15
  call void @llvm.lifetime.start.p0(i64 8, ptr %8) #12
  %11 = load ptr, ptr %7, align 8, !tbaa !15
  store ptr %11, ptr %8, align 8, !tbaa !15
  call void @llvm.lifetime.start.p0(i64 4, ptr %9) #12
  store i32 0, ptr %9, align 4, !tbaa !4
  br label %12

12:                                               ; preds = %35, %3
  %13 = load ptr, ptr %8, align 8, !tbaa !15
  %14 = call i32 @atoi(ptr noundef %13) #13
  %15 = trunc i32 %14 to i16
  %16 = load ptr, ptr %6, align 8, !tbaa !465
  %17 = load i32, ptr %9, align 4, !tbaa !4
  %18 = sext i32 %17 to i64
  %19 = getelementptr inbounds i16, ptr %16, i64 %18
  store i16 %15, ptr %19, align 2, !tbaa !466
  %20 = load i32, ptr %9, align 4, !tbaa !4
  %21 = icmp eq i32 %20, 63
  br i1 %21, label %22, label %23

22:                                               ; preds = %12
  store i32 2, ptr %10, align 4
  br label %38

23:                                               ; preds = %12
  %24 = load ptr, ptr %8, align 8, !tbaa !15
  %25 = call ptr @strchr(ptr noundef %24, i32 noundef 44) #13
  store ptr %25, ptr %8, align 8, !tbaa !15
  %26 = load ptr, ptr %8, align 8, !tbaa !15
  %27 = icmp ne ptr %26, null
  br i1 %27, label %32, label %28

28:                                               ; preds = %23
  %29 = load ptr, ptr %5, align 8, !tbaa !75
  %30 = load ptr, ptr %7, align 8, !tbaa !15
  %31 = load i32, ptr %9, align 4, !tbaa !4
  call void (ptr, i32, ptr, ...) @av_log(ptr noundef %29, i32 noundef 8, ptr noundef @.str.118, ptr noundef %30, i32 noundef %31)
  store i32 -22, ptr %4, align 4
  store i32 1, ptr %10, align 4
  br label %38

32:                                               ; preds = %23
  %33 = load ptr, ptr %8, align 8, !tbaa !15
  %34 = getelementptr inbounds nuw i8, ptr %33, i32 1
  store ptr %34, ptr %8, align 8, !tbaa !15
  br label %35

35:                                               ; preds = %32
  %36 = load i32, ptr %9, align 4, !tbaa !4
  %37 = add nsw i32 %36, 1
  store i32 %37, ptr %9, align 4, !tbaa !4
  br label %12

38:                                               ; preds = %28, %22
  call void @llvm.lifetime.end.p0(i64 4, ptr %9) #12
  %39 = load i32, ptr %10, align 4
  switch i32 %39, label %41 [
    i32 2, label %40
  ]

40:                                               ; preds = %38
  store i32 0, ptr %4, align 4
  store i32 1, ptr %10, align 4
  br label %41

41:                                               ; preds = %40, %38
  call void @llvm.lifetime.end.p0(i64 8, ptr %8) #12
  %42 = load i32, ptr %4, align 4
  ret i32 %42
}