; Function Attrs: nounwind uwtable
define internal fastcc range(i32 -22, 1) i32 @parse_matrix_coeffs(ptr noundef nonnull %0, ptr noundef nonnull writeonly captures(none) initializes((0, 2)) %1, ptr noundef %2) unnamed_addr #0 {
  %4 = tail call i64 @strtol(ptr noundef nonnull captures(none) %2, ptr noundef null, i32 noundef 10) #16
  %5 = trunc i64 %4 to i16
  store i16 %5, ptr %1, align 2, !tbaa !425
  br label %6

6:                                                ; preds = %3, %10
  %indvars.iv = phi i64 [ 0, %3 ], [ %indvars.iv.next, %10 ]
  %.01418 = phi ptr [ %2, %3 ], [ %11, %10 ]
  %7 = tail call ptr @strchr(ptr noundef nonnull dereferenceable(1) %.01418, i32 noundef 44) #17
  %.not = icmp eq ptr %7, null
  br i1 %.not, label %8, label %10

8:                                                ; preds = %6
  %9 = trunc nuw nsw i64 %indvars.iv to i32
  tail call void (ptr, i32, ptr, ...) @av_log(ptr noundef nonnull %0, i32 noundef 8, ptr noundef nonnull @.str.118, ptr noundef nonnull %2, i32 noundef %9) #16
  br label %.loopexit

10:                                               ; preds = %6
  %11 = getelementptr inbounds nuw i8, ptr %7, i64 1
  %indvars.iv.next = add nuw nsw i64 %indvars.iv, 1
  %12 = tail call i64 @strtol(ptr noundef nonnull captures(none) %11, ptr noundef null, i32 noundef 10) #16
  %13 = trunc i64 %12 to i16
  %14 = getelementptr inbounds nuw i16, ptr %1, i64 %indvars.iv.next
  store i16 %13, ptr %14, align 2, !tbaa !425
  %15 = icmp eq i64 %indvars.iv.next, 63
  br i1 %15, label %.loopexit, label %6

.loopexit:                                        ; preds = %10, %8
  %spec.select = phi i32 [ -22, %8 ], [ 0, %10 ]
  ret i32 %spec.select
}